target datalayout = "e-m:e-p270:32:32-p271:32:32-p272:64:64-i64:64-i128:128-f80:128-n8:16:32:64-S128"
target triple = "x86_64-pc-linux-gnu"

%struct._object = type { %union.anon, ptr }
%union.anon = type { i64 }
%struct._typeobject = type { %struct.PyVarObject, ptr, i64, i64, ptr, i64, ptr, ptr, ptr, ptr, ptr, ptr, ptr, ptr, ptr, ptr, ptr, ptr, ptr, i64, ptr, ptr, ptr, ptr, i64, ptr, ptr, ptr, ptr, ptr, ptr, ptr, ptr, ptr, i64, ptr, ptr, ptr, ptr, ptr, ptr, ptr, ptr, ptr, ptr, ptr, i32, ptr, ptr, i8, i16 }
%struct.PyVarObject = type { %struct._object, i64 }
%struct.PyASCIIObject = type { %struct._object, i64, i64, %struct.anon.0 }
%struct.anon.0 = type { i16, i16 }
%struct.arrayobject = type { %struct.PyVarObject, ptr, i64, ptr, ptr, i64 }

@PyExc_TypeError = external global ptr, align 8
@.str.32 = private unnamed_addr constant [47 x i8] c"array item must be a unicode character, not %T\00", align 1
@.str.33 = private unnamed_addr constant [67 x i8] c"array item must be a unicode character, not a string of length %zd\00", align 1
@.str.34 = private unnamed_addr constant [60 x i8] c"string %A cannot be converted to a single wchar_t character\00", align 1

; Function Attrs: inlinehint nounwind uwtable
define internal i64 @PyUnicode_GET_LENGTH(ptr noundef %0) #3 {
  %2 = alloca ptr, align 8
  store ptr %0, ptr %2, align 8, !tbaa !3
  %3 = load ptr, ptr %2, align 8, !tbaa !3
  %4 = getelementptr inbounds nuw %struct.PyASCIIObject, ptr %3, i32 0, i32 1
  %5 = load i64, ptr %4, align 8, !tbaa !33
  ret i64 %5
}

; Function Attrs: inlinehint nounwind uwtable
define internal i32 @PyType_HasFeature(ptr noundef %0, i64 noundef %1) #3 {
  %3 = alloca ptr, align 8
  %4 = alloca i64, align 8
  %5 = alloca i64, align 8
  store ptr %0, ptr %3, align 8, !tbaa !18
  store i64 %1, ptr %4, align 8, !tbaa !21
  call void @llvm.lifetime.start.p0(i64 8, ptr %5) #8
  %6 = load ptr, ptr %3, align 8, !tbaa !18
  %7 = getelementptr inbounds nuw %struct._typeobject, ptr %6, i32 0, i32 19
  %8 = load i64, ptr %7, align 8, !tbaa !23
  store i64 %8, ptr %5, align 8, !tbaa !21
  %9 = load i64, ptr %5, align 8, !tbaa !21
  %10 = load i64, ptr %4, align 8, !tbaa !21
  %11 = and i64 %9, %10
  %12 = icmp ne i64 %11, 0
  %13 = zext i1 %12 to i32
  call void @llvm.lifetime.end.p0(i64 8, ptr %5) #8
  ret i32 %13
}

; Function Attrs: inlinehint nounwind uwtable
define internal ptr @_Py_TYPE(ptr noundef %0) #3 {
  %2 = alloca ptr, align 8
  store ptr %0, ptr %2, align 8, !tbaa !3
  %3 = load ptr, ptr %2, align 8, !tbaa !3
  %4 = getelementptr inbounds nuw %struct._object, ptr %3, i32 0, i32 1
  %5 = load ptr, ptr %4, align 8, !tbaa !32
  ret ptr %5
}

; Function Attrs: nounwind uwtable
define internal i32 @u_setitem(ptr noundef %0, i64 noundef %1, ptr noundef %2) #0 {
  %4 = alloca i32, align 4
  %5 = alloca ptr, align 8
  %6 = alloca i64, align 8
  %7 = alloca ptr, align 8
  %8 = alloca i64, align 8
  %9 = alloca i32, align 4
  %10 = alloca i32, align 4
  store ptr %0, ptr %5, align 8, !tbaa !68
  store i64 %1, ptr %6, align 8, !tbaa !21
  store ptr %2, ptr %7, align 8, !tbaa !3
  %11 = load ptr, ptr %7, align 8, !tbaa !3
  %12 = call ptr @_Py_TYPE(ptr noundef %11)
  %13 = call i32 @PyType_HasFeature(ptr noundef %12, i64 noundef 268435456)
  %14 = icmp ne i32 %13, 0
  br i1 %14, label %19, label %15

15:                                               ; preds = %3
  %16 = load ptr, ptr @PyExc_TypeError, align 8, !tbaa !3
  %17 = load ptr, ptr %7, align 8, !tbaa !3
  %18 = call ptr (ptr, ptr, ...) @PyErr_Format(ptr noundef %16, ptr noundef @.str.32, ptr noundef %17)
  store i32 -1, ptr %4, align 4
  br label %52

19:                                               ; preds = %3
  call void @llvm.lifetime.start.p0(i64 8, ptr %8) #8
  %20 = load ptr, ptr %7, align 8, !tbaa !3
  %21 = call i64 @PyUnicode_AsWideChar(ptr noundef %20, ptr noundef null, i64 noundef 0)
  store i64 %21, ptr %8, align 8, !tbaa !21
  %22 = load i64, ptr %8, align 8, !tbaa !21
  %23 = icmp ne i64 %22, 2
  br i1 %23, label %24, label %38

24:                                               ; preds = %19
  %25 = load ptr, ptr %7, align 8, !tbaa !3
  %26 = call i64 @PyUnicode_GET_LENGTH(ptr noundef %25)
  %27 = icmp ne i64 %26, 1
  br i1 %27, label %28, label %33

28:                                               ; preds = %24
  %29 = load ptr, ptr @PyExc_TypeError, align 8, !tbaa !3
  %30 = load ptr, ptr %7, align 8, !tbaa !3
  %31 = call i64 @PyUnicode_GET_LENGTH(ptr noundef %30)
  %32 = call ptr (ptr, ptr, ...) @PyErr_Format(ptr noundef %29, ptr noundef @.str.33, i64 noundef %31)
  br label %37

33:                                               ; preds = %24
  %34 = load ptr, ptr @PyExc_TypeError, align 8, !tbaa !3
  %35 = load ptr, ptr %7, align 8, !tbaa !3
  %36 = call ptr (ptr, ptr, ...) @PyErr_Format(ptr noundef %34, ptr noundef @.str.34, ptr noundef %35)
  br label %37

37:                                               ; preds = %33, %28
  store i32 -1, ptr %4, align 4
  store i32 1, ptr %9, align 4
  br label %51

38:                                               ; preds = %19
  call void @llvm.lifetime.start.p0(i64 4, ptr %10) #8
  %39 = load ptr, ptr %7, align 8, !tbaa !3
  %40 = call i64 @PyUnicode_AsWideChar(ptr noundef %39, ptr noundef %10, i64 noundef 1)
  store i64 %40, ptr %8, align 8, !tbaa !21
  %41 = load i64, ptr %6, align 8, !tbaa !21
  %42 = icmp sge i64 %41, 0
  br i1 %42, label %43, label %50

43:                                               ; preds = %38
  %44 = load i32, ptr %10, align 4, !tbaa !12
  %45 = load ptr, ptr %5, align 8, !tbaa !68
  %46 = getelementptr inbounds nuw %struct.arrayobject, ptr %45, i32 0, i32 1
  %47 = load ptr, ptr %46, align 8, !tbaa !70
  %48 = load i64, ptr %6, align 8, !tbaa !21
  %49 = getelementptr i32, ptr %47, i64 %48
  store i32 %44, ptr %49, align 4, !tbaa !12
  br label %50

50:                                               ; preds = %43, %38
  store i32 0, ptr %4, align 4
  store i32 1, ptr %9, align 4
  call void @llvm.lifetime.end.p0(i64 4, ptr %10) #8
  br label %51

51:                                               ; preds = %50, %37
  call void @llvm.lifetime.end.p0(i64 8, ptr %8) #8
  br label %52

52:                                               ; preds = %51, %15
  %53 = load i32, ptr %4, align 4
  ret i32 %53
}