; Function Attrs: nounwind uwtable
define internal range(i32 -1, 1) i32 @u_setitem(ptr noundef readonly captures(none) %0, i64 noundef %1, ptr noundef %2) #0 {
  %4 = alloca i32, align 4
  %5 = getelementptr i8, ptr %2, i64 8
  %.val = load ptr, ptr %5, align 8, !tbaa !19
  %6 = getelementptr i8, ptr %.val, i64 168
  %.val14 = load i64, ptr %6, align 8, !tbaa !20
  %7 = and i64 %.val14, 268435456
  %.not = icmp eq i64 %7, 0
  br i1 %.not, label %8, label %11

8:                                                ; preds = %3
  %9 = load ptr, ptr @PyExc_TypeError, align 8, !tbaa !18
  %10 = tail call ptr (ptr, ptr, ...) @PyErr_Format(ptr noundef %9, ptr noundef nonnull @.str.32, ptr noundef nonnull %2) #11
  br label %29

11:                                               ; preds = %3
  %12 = tail call i64 @PyUnicode_AsWideChar(ptr noundef nonnull %2, ptr noundef null, i64 noundef 0) #11
  %.not12 = icmp eq i64 %12, 2
  br i1 %.not12, label %20, label %13

13:                                               ; preds = %11
  %14 = getelementptr i8, ptr %2, i64 16
  %.val16 = load i64, ptr %14, align 8, !tbaa !30
  %.not13 = icmp eq i64 %.val16, 1
  %15 = load ptr, ptr @PyExc_TypeError, align 8, !tbaa !18
  br i1 %.not13, label %18, label %16

16:                                               ; preds = %13
  %17 = tail call ptr (ptr, ptr, ...) @PyErr_Format(ptr noundef %15, ptr noundef nonnull @.str.33, i64 noundef %.val16) #11
  br label %29

18:                                               ; preds = %13
  %19 = tail call ptr (ptr, ptr, ...) @PyErr_Format(ptr noundef %15, ptr noundef nonnull @.str.34, ptr noundef nonnull %2) #11
  br label %29

20:                                               ; preds = %11
  call void @llvm.lifetime.start.p0(i64 4, ptr nonnull %4) #11
  %21 = call i64 @PyUnicode_AsWideChar(ptr noundef nonnull %2, ptr noundef nonnull %4, i64 noundef 1) #11
  %22 = icmp sgt i64 %1, -1
  br i1 %22, label %23, label %28

23:                                               ; preds = %20
  %24 = load i32, ptr %4, align 4, !tbaa !34
  %25 = getelementptr inbounds nuw i8, ptr %0, i64 24
  %26 = load ptr, ptr %25, align 8, !tbaa !53
  %27 = getelementptr i32, ptr %26, i64 %1
  store i32 %24, ptr %27, align 4, !tbaa !34
  br label %28

28:                                               ; preds = %23, %20
  call void @llvm.lifetime.end.p0(i64 4, ptr nonnull %4) #11
  br label %29

29:                                               ; preds = %28, %18, %16, %8
  %.0 = phi i32 [ -1, %8 ], [ 0, %28 ], [ -1, %18 ], [ -1, %16 ]
  ret i32 %.0
}